Certificate:
    Data:
        Version: 3 (0x2)
        Serial Number: 2 (0x2)
    Signature Algorithm: sha256WithRSAEncryption
        Issuer: C=IT, ST=Italy, L=Mestre-Venezia, O=MIUR, OU=R&D, CN=ca.gov.it/emailAddress=ca@gov.it
        Validity
            Not Before: Apr  9 21:23:29 2017 GMT
            Not After : Apr  7 21:23:29 2027 GMT
        Subject: C=IT, ST=Italy, O=MIUR, OU=R&D, CN=c1.gov.it/emailAddress=c1@gov.it
        Subject Public Key Info:
            Public Key Algorithm: rsaEncryption
                Public-Key: (1024 bit)
                Modulus:
                    00:d0:a5:f0:be:2a:32:15:c5:2f:0d:6b:92:37:48:
                    c0:36:63:e1:f6:8b:1a:3c:81:c1:7b:3c:07:06:33:
                    4e:af:29:13:54:fa:aa:d3:1a:b0:0b:54:8f:2b:99:
                    83:44:ec:1b:89:ed:2a:20:6d:39:9e:19:26:64:8e:
                    8c:fc:e5:13:e0:93:f7:b6:50:f2:58:d6:8c:85:7e:
                    38:b1:c7:c1:73:12:66:83:1b:a2:6d:0b:c7:18:bf:
                    8a:dd:c0:a6:3f:3a:1c:72:91:e2:b9:3a:ca:9e:2b:
                    b5:28:2f:90:5a:5e:8a:26:2e:ed:ee:f2:e2:e5:c5:
                    b8:6d:eb:b1:1b:2a:bb:1e:33
                Exponent: 65537 (0x10001)
        X509v3 extensions:
            X509v3 Basic Constraints: 
                CA:FALSE
            Netscape Comment: 
                OpenSSL Generated Certificate
            X509v3 Subject Key Identifier: 
                A8:06:E0:E6:76:C2:65:EB:88:55:DF:EE:68:E5:0E:3E:1E:DF:DA:43
            X509v3 Authority Key Identifier: 
                keyid:2D:D1:D0:91:48:A7:E5:84:32:14:42:DB:A6:A9:13:32:A6:9E:CF:D1

    Signature Algorithm: sha256WithRSAEncryption
         77:20:ed:66:82:f5:bc:bd:ec:de:24:f1:04:4d:d6:fb:6b:d7:
         0a:33:96:66:10:d8:b3:ca:77:5d:2a:36:af:c6:5a:a1:98:82:
         bd:fa:d4:2a:43:d7:34:25:87:59:f7:5a:40:9d:52:38:5c:13:
         e1:0b:2d:67:32:3e:a3:5c:38:33:3a:7c:58:8f:4c:d4:ab:e5:
         89:da:67:53:69:93:ab:4c:2e:9a:74:19:57:19:4c:39:d3:f7:
         45:46:99:82:65:b3:2d:42:2f:80:c8:00:9f:5b:64:46:cd:03:
         dc:2d:4c:03:da:84:c3:1c:df:57:cc:57:86:32:52:a1:9f:cf:
         0b:3f
-----BEGIN CERTIFICATE-----
MIIC2zCCAkSgAwIBAgIBAjANBgkqhkiG9w0BAQsFADCBgTELMAkGA1UEBhMCSVQx
DjAMBgNVBAgMBUl0YWx5MRcwFQYDVQQHDA5NZXN0cmUtVmVuZXppYTENMAsGA1UE
CgwETUlVUjEMMAoGA1UECwwDUiZEMRIwEAYDVQQDDAljYS5nb3YuaXQxGDAWBgkq
hkiG9w0BCQEWCWNhQGdvdi5pdDAeFw0xNzA0MDkyMTIzMjlaFw0yNzA0MDcyMTIz
MjlaMGgxCzAJBgNVBAYTAklUMQ4wDAYDVQQIDAVJdGFseTENMAsGA1UECgwETUlV
UjEMMAoGA1UECwwDUiZEMRIwEAYDVQQDDAljMS5nb3YuaXQxGDAWBgkqhkiG9w0B
CQEWCWMxQGdvdi5pdDCBnzANBgkqhkiG9w0BAQEFAAOBjQAwgYkCgYEA0KXwvioy
FcUvDWuSN0jANmPh9osaPIHBezwHBjNOrykTVPqq0xqwC1SPK5mDROwbie0qIG05
nhkmZI6M/OUT4JP3tlDyWNaMhX44scfBcxJmgxuibQvHGL+K3cCmPzoccpHiuTrK
niu1KC+QWl6KJi7t7vLi5cW4beuxGyq7HjMCAwEAAaN7MHkwCQYDVR0TBAIwADAs
BglghkgBhvhCAQ0EHxYdT3BlblNTTCBHZW5lcmF0ZWQgQ2VydGlmaWNhdGUwHQYD
VR0OBBYEFKgG4OZ2wmXriFXf7mjlDj4e39pDMB8GA1UdIwQYMBaAFC3R0JFIp+WE
MhRC26apEzKmns/RMA0GCSqGSIb3DQEBCwUAA4GBAHcg7WaC9by97N4k8QRN1vtr
1wozlmYQ2LPKd10qNq/GWqGYgr361CpD1zQlh1n3WkCdUjhcE+ELLWcyPqNcODM6
fFiPTNSr5YnaZ1Npk6tMLpp0GVcZTDnT90VGmYJlsy1CL4DIAJ9bZEbNA9wtTAPa
hMMc31fMV4YyUqGfzws/
-----END CERTIFICATE-----
