Certificate:
    Data:
        Version: 3 (0x2)
        Serial Number: 3 (0x3)
    Signature Algorithm: sha256WithRSAEncryption
        Issuer: C=IT, ST=Italy, L=Mestre-Venezia, O=MIUR, OU=R&D, CN=ca.gov.it/emailAddress=ca@gov.it
        Validity
            Not Before: Apr  9 21:37:57 2017 GMT
            Not After : Apr  9 21:37:57 2018 GMT
        Subject: C=IT, ST=Italy, O=MIUR, OU=R&D, CN=userB.gov.it/emailAddress=userB@gov.it
        Subject Public Key Info:
            Public Key Algorithm: rsaEncryption
                Public-Key: (1024 bit)
                Modulus:
                    00:b0:b8:39:01:22:bc:d1:f0:5c:19:d1:3a:22:ca:
                    f9:ce:98:dc:e2:9e:da:87:87:a9:bc:c9:03:2a:39:
                    46:d4:89:cf:e1:4b:cc:53:97:6f:ba:bf:ce:3e:59:
                    be:b4:62:d4:32:33:19:f0:ca:85:ca:b7:17:9d:6a:
                    ce:5e:bd:43:6f:1f:fa:69:ac:42:16:a5:e7:ec:8d:
                    3f:c9:86:2a:6e:75:3b:85:63:2b:98:3f:54:17:13:
                    95:70:f0:a1:47:20:f0:40:8a:e6:38:3f:0a:9a:e9:
                    44:11:1c:d3:f3:91:82:24:1c:3c:8d:47:66:dc:d7:
                    99:f1:34:06:66:75:8a:ed:4b
                Exponent: 65537 (0x10001)
        X509v3 extensions:
            X509v3 Basic Constraints: 
                CA:FALSE
            Netscape Comment: 
                OpenSSL Generated Certificate
            X509v3 Subject Key Identifier: 
                C4:8C:FE:4F:85:A9:62:5D:13:8B:11:DB:99:F7:0E:C1:8E:BA:C5:1F
            X509v3 Authority Key Identifier: 
                keyid:2D:D1:D0:91:48:A7:E5:84:32:14:42:DB:A6:A9:13:32:A6:9E:CF:D1

    Signature Algorithm: sha256WithRSAEncryption
         ba:36:90:57:38:5c:d2:07:18:b8:aa:ef:bc:8a:fa:c6:b3:1e:
         5c:72:23:98:a6:6a:e1:a8:8e:73:64:21:b1:a5:a8:2a:7b:61:
         81:f7:38:3f:58:e1:b6:fb:d6:8e:fc:05:67:34:1b:bf:00:8c:
         1d:2e:e3:58:8e:39:87:90:d8:bc:c0:38:ee:ed:29:01:e2:51:
         84:96:01:70:83:54:df:2f:2e:9c:34:89:2f:b1:b2:cf:1b:ce:
         9e:6e:2f:41:8e:5f:fc:90:31:95:e1:9e:3f:1d:24:3b:57:09:
         88:c6:b5:05:58:b0:09:d0:24:55:cb:cd:d9:c1:29:84:91:4b:
         ee:ce
-----BEGIN CERTIFICATE-----
MIIC4TCCAkqgAwIBAgIBAzANBgkqhkiG9w0BAQsFADCBgTELMAkGA1UEBhMCSVQx
DjAMBgNVBAgMBUl0YWx5MRcwFQYDVQQHDA5NZXN0cmUtVmVuZXppYTENMAsGA1UE
CgwETUlVUjEMMAoGA1UECwwDUiZEMRIwEAYDVQQDDAljYS5nb3YuaXQxGDAWBgkq
hkiG9w0BCQEWCWNhQGdvdi5pdDAeFw0xNzA0MDkyMTM3NTdaFw0xODA0MDkyMTM3
NTdaMG4xCzAJBgNVBAYTAklUMQ4wDAYDVQQIDAVJdGFseTENMAsGA1UECgwETUlV
UjEMMAoGA1UECwwDUiZEMRUwEwYDVQQDDAx1c2VyQi5nb3YuaXQxGzAZBgkqhkiG
9w0BCQEWDHVzZXJCQGdvdi5pdDCBnzANBgkqhkiG9w0BAQEFAAOBjQAwgYkCgYEA
sLg5ASK80fBcGdE6Isr5zpjc4p7ah4epvMkDKjlG1InP4UvMU5dvur/OPlm+tGLU
MjMZ8MqFyrcXnWrOXr1Dbx/6aaxCFqXn7I0/yYYqbnU7hWMrmD9UFxOVcPChRyDw
QIrmOD8KmulEERzT85GCJBw8jUdm3NeZ8TQGZnWK7UsCAwEAAaN7MHkwCQYDVR0T
BAIwADAsBglghkgBhvhCAQ0EHxYdT3BlblNTTCBHZW5lcmF0ZWQgQ2VydGlmaWNh
dGUwHQYDVR0OBBYEFMSM/k+FqWJdE4sR25n3DsGOusUfMB8GA1UdIwQYMBaAFC3R
0JFIp+WEMhRC26apEzKmns/RMA0GCSqGSIb3DQEBCwUAA4GBALo2kFc4XNIHGLiq
77yK+sazHlxyI5imauGojnNkIbGlqCp7YYH3OD9Y4bb71o78BWc0G78AjB0u41iO
OYeQ2LzAOO7tKQHiUYSWAXCDVN8vLpw0iS+xss8bzp5uL0GOX/yQMZXhnj8dJDtX
CYjGtQVYsAnQJFXLzdnBKYSRS+7O
-----END CERTIFICATE-----
